(dp0
S'AR-5'
p1
S'72.4529783'
p2
sS'AAVS1-8'
p3
S'7.8'
p4
sS'AAVS1-9'
p5
S'1.0'
p6
sS'AAVS1-1'
p7
S'1.0'
p8
sS'AAVS1-2'
p9
S'1.0'
p10
sS'AAVS1-3'
p11
S'1.0'
p12
sS'AAVS1-4'
p13
S'1.0'
p14
sS'AAVS1-5'
p15
S'10.4'
p16
sS'AAVS1-6'
p17
S'1.0'
p18
sS'AAVS1-7'
p19
S'1.0'
p20
sS'FOXA1-1'
p21
S'60.9370883'
p22
sS'FOXA1-3'
p23
S'89.0560751'
p24
sS'FOXA1-2'
p25
S'38.0223264'
p26
sS'FOXA1-5'
p27
S'65.3203361'
p28
sS'FOXA1-4'
p29
S'83.6183619'
p30
sS'FOXA1-6'
p31
S'34.3942261'
p32
sS'AAVS1-20'
p33
S'17.1'
p34
sS'AR-8'
p35
S'81.7955089'
p36
sS'AAVS1-12'
p37
S'4.9'
p38
sS'AAVS1-13'
p39
S'18.7'
p40
sS'AAVS1-10'
p41
S'5.9'
p42
sS'AAVS1-11'
p43
S'17.3'
p44
sS'AAVS1-16'
p45
S'27.9'
p46
sS'AAVS1-17'
p47
S'12.4'
p48
sS'AAVS1-14'
p49
S'27.2'
p50
sS'AAVS1-15'
p51
S'24.1'
p52
sS'AR-6'
p53
S'45.7222857'
p54
sS'AR-7'
p55
S'50.3780102'
p56
sS'AAVS1-18'
p57
S'23.2'
p58
sS'AAVS1-19'
p59
S'28.2'
p60
sS'AR-2'
p61
S'92.097193'
p62
sS'AR-3'
p63
S'68.4186616'
p64
sS'AR-1'
p65
S'44.5235866'
p66
sS'AR-9'
p67
S'82.9595394'
p68
sS'AR-4'
p69
S'75.7445747'
p70
s.